target datalayout = "e-m:e-p270:32:32-p271:32:32-p272:64:64-i64:64-i128:128-f80:128-n8:16:32:64-S128"
target triple = "x86_64-pc-linux-gnu"

%struct.H5CX_node_t = type { %struct.H5CX_t, ptr }
%struct.H5CX_t = type { i64, ptr, i64, ptr, i64, ptr, i64, ptr, i64, ptr, i64, ptr, i64, i32, i64, i8, ptr, i8, ptr, i8, i32, i8, [3 x double], i8, i64, i8, i32, i8, %struct.H5Z_cb_t, i8, ptr, i8, %struct.H5T_vlen_alloc_info_t, i8, %struct.H5T_conv_cb_t, i8, i32, i8, i8, i8, i32, i8, i8, i32, i8, i8, i32, i8, i32, i8, i64, i8, i8, i8, i8, i8, ptr, i8, ptr, i8, i32, i8, i32, i8, %struct.H5VL_connector_prop_t, i8, ptr, i8 }
%struct.H5Z_cb_t = type { ptr, ptr }
%struct.H5T_vlen_alloc_info_t = type { ptr, ptr, ptr, ptr }
%struct.H5T_conv_cb_t = type { ptr, ptr }
%struct.H5VL_connector_prop_t = type { ptr, ptr }
%struct.H5ES_t = type { i64, ptr, ptr, ptr, ptr, %struct.H5ES_event_list_t, i8, %struct.H5ES_event_list_t }
%struct.H5ES_event_list_t = type { i64, ptr, ptr }

@H5_libinit_g = external global i8, align 1
@H5_libterm_g = external global i8, align 1
@.str = private unnamed_addr constant [98 x i8] c"generated/home/dtcxzyw/WorkSpace/Projects/compilers/llvm-opt-benchmark/bench/hdf5/hdf5/src/H5ES.c\00", align 1
@H5E_FUNC_g = external global i64, align 8
@H5E_CANTINIT_g = external global i64, align 8
@.str.1 = private unnamed_addr constant [30 x i8] c"library initialization failed\00", align 1
@H5ES_init_g = external global i8, align 1
@.str.2 = private unnamed_addr constant [32 x i8] c"interface initialization failed\00", align 1
@H5E_CANTSET_g = external global i64, align 8
@.str.3 = private unnamed_addr constant [22 x i8] c"can't set API context\00", align 1
@H5E_ARGS_g = external global i64, align 8
@H5E_BADTYPE_g = external global i64, align 8
@.str.6 = private unnamed_addr constant [29 x i8] c"invalid event set identifier\00", align 1
@__func__.H5ESget_op_counter = private unnamed_addr constant [19 x i8] c"H5ESget_op_counter\00", align 1

; Function Attrs: nounwind uwtable
define i32 @H5ESget_op_counter(i64 noundef %0, ptr noundef %1) #0 {
  %3 = alloca i32, align 4
  %4 = alloca i64, align 8
  %5 = alloca ptr, align 8
  %6 = alloca i32, align 4
  %7 = alloca %struct.H5CX_node_t, align 8
  %8 = alloca i8, align 1
  %9 = alloca i8, align 1
  %10 = alloca ptr, align 8
  %11 = alloca i32, align 4
  store i64 %0, ptr %4, align 8, !tbaa !3
  store ptr %1, ptr %5, align 8, !tbaa !19
  call void @llvm.lifetime.start.p0(i64 4, ptr %6) #5
  store i32 0, ptr %6, align 4, !tbaa !17
  call void @llvm.lifetime.start.p0(i64 480, ptr %7) #5
  call void @llvm.memset.p0.i64(ptr align 8 %7, i8 0, i64 480, i1 false)
  call void @llvm.lifetime.start.p0(i64 1, ptr %8) #5
  store i8 0, ptr %8, align 1, !tbaa !7
  call void @llvm.lifetime.start.p0(i64 1, ptr %9) #5
  store i8 0, ptr %9, align 1, !tbaa !7
  br label %12

12:                                               ; preds = %2
  %13 = load i8, ptr @H5_libinit_g, align 1, !tbaa !7, !range !9, !noundef !10
  %14 = trunc i8 %13 to i1
  br i1 %14, label %19, label %15

15:                                               ; preds = %12
  %16 = load i8, ptr @H5_libterm_g, align 1, !tbaa !7, !range !9, !noundef !10
  %17 = trunc i8 %16 to i1
  %18 = xor i1 %17, true
  br label %19

19:                                               ; preds = %15, %12
  %20 = phi i1 [ false, %12 ], [ %18, %15 ]
  %21 = xor i1 %20, true
  %22 = xor i1 %21, true
  %23 = zext i1 %22 to i32
  %24 = sext i32 %23 to i64
  %25 = call i64 @llvm.expect.i64(i64 %24, i64 0)
  %26 = icmp ne i64 %25, 0
  br i1 %26, label %27, label %56

27:                                               ; preds = %19
  %28 = call i32 @H5_init_library()
  %29 = icmp slt i32 %28, 0
  %30 = xor i1 %29, true
  %31 = xor i1 %30, true
  %32 = zext i1 %31 to i32
  %33 = sext i32 %32 to i64
  %34 = call i64 @llvm.expect.i64(i64 %33, i64 0)
  %35 = icmp ne i64 %34, 0
  br i1 %35, label %36, label %55

36:                                               ; preds = %27
  br label %37

37:                                               ; preds = %36
  br label %38

38:                                               ; preds = %37
  br label %39

39:                                               ; preds = %38
  %40 = load i64, ptr @H5E_FUNC_g, align 8, !tbaa !3
  %41 = load i64, ptr @H5E_CANTINIT_g, align 8, !tbaa !3
  %42 = call i32 (ptr, ptr, i32, i64, i64, ptr, ...) @H5E_printf_stack(ptr noundef @.str, ptr noundef @__func__.H5ESget_op_counter, i32 noundef 192, i64 noundef %40, i64 noundef %41, ptr noundef @.str.1)
  br label %43

43:                                               ; preds = %39
  br label %44

44:                                               ; preds = %43
  store i8 1, ptr %9, align 1, !tbaa !7
  %45 = load i8, ptr %9, align 1, !tbaa !7, !range !9, !noundef !10
  %46 = trunc i8 %45 to i1
  %47 = zext i1 %46 to i8
  store i8 %47, ptr %9, align 1, !tbaa !7
  br label %48

48:                                               ; preds = %44
  br label %49

49:                                               ; preds = %48
  br label %50

50:                                               ; preds = %49
  store i32 -1, ptr %6, align 4, !tbaa !17
  br label %168

51:                                               ; No predecessors!
  br label %52

52:                                               ; preds = %51
  br label %53

53:                                               ; preds = %52
  br label %54

54:                                               ; preds = %53
  br label %55

55:                                               ; preds = %54, %27
  br label %56

56:                                               ; preds = %55, %19
  %57 = load i8, ptr @H5ES_init_g, align 1, !tbaa !7, !range !9, !noundef !10
  %58 = trunc i8 %57 to i1
  br i1 %58, label %63, label %59

59:                                               ; preds = %56
  %60 = load i8, ptr @H5_libterm_g, align 1, !tbaa !7, !range !9, !noundef !10
  %61 = trunc i8 %60 to i1
  %62 = xor i1 %61, true
  br label %63

63:                                               ; preds = %59, %56
  %64 = phi i1 [ false, %56 ], [ %62, %59 ]
  %65 = xor i1 %64, true
  %66 = xor i1 %65, true
  %67 = zext i1 %66 to i32
  %68 = sext i32 %67 to i64
  %69 = call i64 @llvm.expect.i64(i64 %68, i64 0)
  %70 = icmp ne i64 %69, 0
  br i1 %70, label %71, label %94

71:                                               ; preds = %63
  store i8 1, ptr @H5ES_init_g, align 1, !tbaa !7
  %72 = call i32 @H5ES__init_package()
  %73 = icmp slt i32 %72, 0
  br i1 %73, label %74, label %93

74:                                               ; preds = %71
  store i8 0, ptr @H5ES_init_g, align 1, !tbaa !7
  br label %75

75:                                               ; preds = %74
  br label %76

76:                                               ; preds = %75
  br label %77

77:                                               ; preds = %76
  %78 = load i64, ptr @H5E_FUNC_g, align 8, !tbaa !3
  %79 = load i64, ptr @H5E_CANTINIT_g, align 8, !tbaa !3
  %80 = call i32 (ptr, ptr, i32, i64, i64, ptr, ...) @H5E_printf_stack(ptr noundef @.str, ptr noundef @__func__.H5ESget_op_counter, i32 noundef 192, i64 noundef %78, i64 noundef %79, ptr noundef @.str.2)
  br label %81

81:                                               ; preds = %77
  br label %82

82:                                               ; preds = %81
  store i8 1, ptr %9, align 1, !tbaa !7
  %83 = load i8, ptr %9, align 1, !tbaa !7, !range !9, !noundef !10
  %84 = trunc i8 %83 to i1
  %85 = zext i1 %84 to i8
  store i8 %85, ptr %9, align 1, !tbaa !7
  br label %86

86:                                               ; preds = %82
  br label %87

87:                                               ; preds = %86
  br label %88

88:                                               ; preds = %87
  store i32 -1, ptr %6, align 4, !tbaa !17
  br label %168

89:                                               ; No predecessors!
  br label %90

90:                                               ; preds = %89
  br label %91

91:                                               ; preds = %90
  br label %92

92:                                               ; preds = %91
  br label %93

93:                                               ; preds = %92, %71
  br label %94

94:                                               ; preds = %93, %63
  br label %95

95:                                               ; preds = %94
  br label %96

96:                                               ; preds = %95
  br label %97

97:                                               ; preds = %96
  %98 = call i32 @H5CX_push(ptr noundef %7)
  %99 = icmp slt i32 %98, 0
  %100 = xor i1 %99, true
  %101 = xor i1 %100, true
  %102 = zext i1 %101 to i32
  %103 = sext i32 %102 to i64
  %104 = call i64 @llvm.expect.i64(i64 %103, i64 0)
  %105 = icmp ne i64 %104, 0
  br i1 %105, label %106, label %125

106:                                              ; preds = %97
  br label %107

107:                                              ; preds = %106
  br label %108

108:                                              ; preds = %107
  br label %109

109:                                              ; preds = %108
  %110 = load i64, ptr @H5E_FUNC_g, align 8, !tbaa !3
  %111 = load i64, ptr @H5E_CANTSET_g, align 8, !tbaa !3
  %112 = call i32 (ptr, ptr, i32, i64, i64, ptr, ...) @H5E_printf_stack(ptr noundef @.str, ptr noundef @__func__.H5ESget_op_counter, i32 noundef 192, i64 noundef %110, i64 noundef %111, ptr noundef @.str.3)
  br label %113

113:                                              ; preds = %109
  br label %114

114:                                              ; preds = %113
  store i8 1, ptr %9, align 1, !tbaa !7
  %115 = load i8, ptr %9, align 1, !tbaa !7, !range !9, !noundef !10
  %116 = trunc i8 %115 to i1
  %117 = zext i1 %116 to i8
  store i8 %117, ptr %9, align 1, !tbaa !7
  br label %118

118:                                              ; preds = %114
  br label %119

119:                                              ; preds = %118
  br label %120

120:                                              ; preds = %119
  store i32 -1, ptr %6, align 4, !tbaa !17
  br label %168

121:                                              ; No predecessors!
  br label %122

122:                                              ; preds = %121
  br label %123

123:                                              ; preds = %122
  br label %124

124:                                              ; preds = %123
  br label %126

125:                                              ; preds = %97
  store i8 1, ptr %8, align 1, !tbaa !7
  br label %126

126:                                              ; preds = %125, %124
  br label %127

127:                                              ; preds = %126
  br label %128

128:                                              ; preds = %127
  %129 = call i32 @H5E_clear_stack()
  %130 = load i64, ptr %4, align 8, !tbaa !3
  %131 = icmp ne i64 0, %130
  br i1 %131, label %132, label %167

132:                                              ; preds = %128
  call void @llvm.lifetime.start.p0(i64 8, ptr %10) #5
  %133 = load i64, ptr %4, align 8, !tbaa !3
  %134 = call ptr @H5I_object_verify(i64 noundef %133, i32 noundef 16)
  store ptr %134, ptr %10, align 8, !tbaa !11
  %135 = icmp eq ptr null, %134
  br i1 %135, label %136, label %155

136:                                              ; preds = %132
  br label %137

137:                                              ; preds = %136
  br label %138

138:                                              ; preds = %137
  br label %139

139:                                              ; preds = %138
  %140 = load i64, ptr @H5E_ARGS_g, align 8, !tbaa !3
  %141 = load i64, ptr @H5E_BADTYPE_g, align 8, !tbaa !3
  %142 = call i32 (ptr, ptr, i32, i64, i64, ptr, ...) @H5E_printf_stack(ptr noundef @.str, ptr noundef @__func__.H5ESget_op_counter, i32 noundef 200, i64 noundef %140, i64 noundef %141, ptr noundef @.str.6)
  br label %143

143:                                              ; preds = %139
  br label %144

144:                                              ; preds = %143
  store i8 1, ptr %9, align 1, !tbaa !7
  %145 = load i8, ptr %9, align 1, !tbaa !7, !range !9, !noundef !10
  %146 = trunc i8 %145 to i1
  %147 = zext i1 %146 to i8
  store i8 %147, ptr %9, align 1, !tbaa !7
  br label %148

148:                                              ; preds = %144
  br label %149

149:                                              ; preds = %148
  br label %150

150:                                              ; preds = %149
  store i32 -1, ptr %6, align 4, !tbaa !17
  store i32 12, ptr %11, align 4
  br label %164

151:                                              ; No predecessors!
  br label %152

152:                                              ; preds = %151
  br label %153

153:                                              ; preds = %152
  br label %154

154:                                              ; preds = %153
  br label %155

155:                                              ; preds = %154, %132
  %156 = load ptr, ptr %5, align 8, !tbaa !19
  %157 = icmp ne ptr %156, null
  br i1 %157, label %158, label %163

158:                                              ; preds = %155
  %159 = load ptr, ptr %10, align 8, !tbaa !11
  %160 = getelementptr inbounds nuw %struct.H5ES_t, ptr %159, i32 0, i32 0
  %161 = load i64, ptr %160, align 8, !tbaa !21
  %162 = load ptr, ptr %5, align 8, !tbaa !19
  store i64 %161, ptr %162, align 8, !tbaa !3
  br label %163

163:                                              ; preds = %158, %155
  store i32 0, ptr %11, align 4
  br label %164

164:                                              ; preds = %150, %163
  call void @llvm.lifetime.end.p0(i64 8, ptr %10) #5
  %165 = load i32, ptr %11, align 4
  switch i32 %165, label %192 [
    i32 0, label %166
    i32 12, label %168
  ]

166:                                              ; preds = %164
  br label %167

167:                                              ; preds = %166, %128
  br label %168

168:                                              ; preds = %167, %164, %120, %88, %50
  %169 = load i8, ptr %8, align 1, !tbaa !7, !range !9, !noundef !10
  %170 = trunc i8 %169 to i1
  %171 = xor i1 %170, true
  %172 = xor i1 %171, true
  %173 = zext i1 %172 to i32
  %174 = sext i32 %173 to i64
  %175 = call i64 @llvm.expect.i64(i64 %174, i64 1)
  %176 = icmp ne i64 %175, 0
  br i1 %176, label %177, label %179

177:                                              ; preds = %168
  %178 = call i32 @H5CX_pop(i1 noundef zeroext true)
  store i8 0, ptr %8, align 1, !tbaa !7
  br label %179

179:                                              ; preds = %177, %168
  %180 = load i8, ptr %9, align 1, !tbaa !7, !range !9, !noundef !10
  %181 = trunc i8 %180 to i1
  %182 = xor i1 %181, true
  %183 = xor i1 %182, true
  %184 = zext i1 %183 to i32
  %185 = sext i32 %184 to i64
  %186 = call i64 @llvm.expect.i64(i64 %185, i64 0)
  %187 = icmp ne i64 %186, 0
  br i1 %187, label %188, label %190

188:                                              ; preds = %179
  %189 = call i32 @H5E_dump_api_stack()
  br label %190

190:                                              ; preds = %188, %179
  %191 = load i32, ptr %6, align 4, !tbaa !17
  store i32 %191, ptr %3, align 4
  store i32 1, ptr %11, align 4
  br label %192

192:                                              ; preds = %190, %164
  call void @llvm.lifetime.end.p0(i64 1, ptr %9) #5
  call void @llvm.lifetime.end.p0(i64 1, ptr %8) #5
  call void @llvm.lifetime.end.p0(i64 480, ptr %7) #5
  call void @llvm.lifetime.end.p0(i64 4, ptr %6) #5
  %193 = load i32, ptr %3, align 4
  ret i32 %193
}